target datalayout = "e-m:e-p270:32:32-p271:32:32-p272:64:64-i64:64-i128:128-f80:128-n8:16:32:64-S128"
target triple = "x86_64-pc-linux-gnu"

%struct.strvec = type { ptr, i64, i64 }
%struct.child_process = type { %struct.strvec, %struct.strvec, i32, i32, i64, ptr, ptr, i32, i32, i32, ptr, i16, ptr }

@opt_rebase = internal global i32 -1, align 4
@opt_autostash = internal global i32 -1, align 4
@opt_verbosity = internal global i32 0, align 4
@.str.28 = private unnamed_addr constant [7 x i8] c"rebase\00", align 1
@opt_diffstat = internal global ptr null, align 8
@opt_signoff = internal global ptr null, align 8
@opt_verify_signatures = internal global ptr null, align 8
@opt_strategies = internal global %struct.strvec { ptr @empty_strvec, i64 0, i64 0 }, align 8
@opt_strategy_opts = internal global %struct.strvec { ptr @empty_strvec, i64 0, i64 0 }, align 8
@opt_gpg_sign = internal global ptr null, align 8
@.str.128 = private unnamed_addr constant [1 x i8] zeroinitializer, align 1
@git_gettext_enabled = external global i32, align 4
@.str.150 = private unnamed_addr constant [3 x i8] c"-v\00", align 1
@.str.151 = private unnamed_addr constant [3 x i8] c"-q\00", align 1
@.str.176 = private unnamed_addr constant [15 x i8] c"--no-autostash\00", align 1
@.str.177 = private unnamed_addr constant [12 x i8] c"--autostash\00", align 1
@.str.180 = private unnamed_addr constant [16 x i8] c"--rebase-merges\00", align 1
@.str.181 = private unnamed_addr constant [14 x i8] c"--interactive\00", align 1
@.str.182 = private unnamed_addr constant [20 x i8] c"--verify-signatures\00", align 1
@.str.183 = private unnamed_addr constant [40 x i8] c"ignoring --verify-signatures for rebase\00", align 1
@.str.184 = private unnamed_addr constant [7 x i8] c"--onto\00", align 1

; Function Attrs: inlinehint nounwind uwtable
define internal ptr @_(ptr noundef %0) #4 {
  %2 = alloca ptr, align 8
  %3 = alloca ptr, align 8
  store ptr %0, ptr %3, align 8, !tbaa !11
  %4 = load ptr, ptr %3, align 8, !tbaa !11
  %5 = load i8, ptr %4, align 1, !tbaa !63
  %6 = icmp ne i8 %5, 0
  br i1 %6, label %8, label %7

7:                                                ; preds = %1
  store ptr @.str.128, ptr %2, align 8
  br label %16

8:                                                ; preds = %1
  %9 = load i32, ptr @git_gettext_enabled, align 4, !tbaa !4
  %10 = icmp ne i32 %9, 0
  br i1 %10, label %13, label %11

11:                                               ; preds = %8
  %12 = load ptr, ptr %3, align 8, !tbaa !11
  store ptr %12, ptr %2, align 8
  br label %16

13:                                               ; preds = %8
  %14 = load ptr, ptr %3, align 8, !tbaa !11
  %15 = call ptr @dcgettext(ptr noundef null, ptr noundef %14, i32 noundef 5) #11
  store ptr %15, ptr %2, align 8
  br label %16

16:                                               ; preds = %13, %11, %7
  %17 = load ptr, ptr %2, align 8
  ret ptr %17
}

; Function Attrs: nounwind uwtable
define internal void @argv_push_verbosity(ptr noundef %0) #0 {
  %2 = alloca ptr, align 8
  %3 = alloca i32, align 4
  store ptr %0, ptr %2, align 8, !tbaa !104
  call void @llvm.lifetime.start.p0(i64 4, ptr %3) #11
  %4 = load i32, ptr @opt_verbosity, align 4, !tbaa !4
  store i32 %4, ptr %3, align 4, !tbaa !4
  br label %5

5:                                                ; preds = %11, %1
  %6 = load i32, ptr %3, align 4, !tbaa !4
  %7 = icmp sgt i32 %6, 0
  br i1 %7, label %8, label %14

8:                                                ; preds = %5
  %9 = load ptr, ptr %2, align 8, !tbaa !104
  %10 = call ptr @strvec_push(ptr noundef %9, ptr noundef @.str.150)
  br label %11

11:                                               ; preds = %8
  %12 = load i32, ptr %3, align 4, !tbaa !4
  %13 = add nsw i32 %12, -1
  store i32 %13, ptr %3, align 4, !tbaa !4
  br label %5, !llvm.loop !106

14:                                               ; preds = %5
  %15 = load i32, ptr @opt_verbosity, align 4, !tbaa !4
  store i32 %15, ptr %3, align 4, !tbaa !4
  br label %16

16:                                               ; preds = %22, %14
  %17 = load i32, ptr %3, align 4, !tbaa !4
  %18 = icmp slt i32 %17, 0
  br i1 %18, label %19, label %25

19:                                               ; preds = %16
  %20 = load ptr, ptr %2, align 8, !tbaa !104
  %21 = call ptr @strvec_push(ptr noundef %20, ptr noundef @.str.151)
  br label %22

22:                                               ; preds = %19
  %23 = load i32, ptr %3, align 4, !tbaa !4
  %24 = add nsw i32 %23, 1
  store i32 %24, ptr %3, align 4, !tbaa !4
  br label %16, !llvm.loop !107

25:                                               ; preds = %16
  call void @llvm.lifetime.end.p0(i64 4, ptr %3) #11
  ret void
}

; Function Attrs: nounwind uwtable
define internal i32 @run_rebase(ptr noundef %0, ptr noundef %1) #0 {
  %3 = alloca ptr, align 8
  %4 = alloca ptr, align 8
  %5 = alloca %struct.child_process, align 8
  store ptr %0, ptr %3, align 8, !tbaa !59
  store ptr %1, ptr %4, align 8, !tbaa !59
  call void @llvm.lifetime.start.p0(i64 120, ptr %5) #11
  call void @llvm.memcpy.p0.p0.i64(ptr align 8 %5, ptr align 8 @__const.run_rebase.cmd, i64 120, i1 false)
  %6 = getelementptr inbounds nuw %struct.child_process, ptr %5, i32 0, i32 0
  %7 = call ptr @strvec_push(ptr noundef %6, ptr noundef @.str.28)
  %8 = getelementptr inbounds nuw %struct.child_process, ptr %5, i32 0, i32 0
  call void @argv_push_verbosity(ptr noundef %8)
  %9 = load i32, ptr @opt_rebase, align 4, !tbaa !4
  %10 = icmp eq i32 %9, 2
  br i1 %10, label %11, label %14

11:                                               ; preds = %2
  %12 = getelementptr inbounds nuw %struct.child_process, ptr %5, i32 0, i32 0
  %13 = call ptr @strvec_push(ptr noundef %12, ptr noundef @.str.180)
  br label %21

14:                                               ; preds = %2
  %15 = load i32, ptr @opt_rebase, align 4, !tbaa !4
  %16 = icmp eq i32 %15, 3
  br i1 %16, label %17, label %20

17:                                               ; preds = %14
  %18 = getelementptr inbounds nuw %struct.child_process, ptr %5, i32 0, i32 0
  %19 = call ptr @strvec_push(ptr noundef %18, ptr noundef @.str.181)
  br label %20

20:                                               ; preds = %17, %14
  br label %21

21:                                               ; preds = %20, %11
  %22 = load ptr, ptr @opt_diffstat, align 8, !tbaa !11
  %23 = icmp ne ptr %22, null
  br i1 %23, label %24, label %28

24:                                               ; preds = %21
  %25 = getelementptr inbounds nuw %struct.child_process, ptr %5, i32 0, i32 0
  %26 = load ptr, ptr @opt_diffstat, align 8, !tbaa !11
  %27 = call ptr @strvec_push(ptr noundef %25, ptr noundef %26)
  br label %28

28:                                               ; preds = %24, %21
  %29 = getelementptr inbounds nuw %struct.child_process, ptr %5, i32 0, i32 0
  %30 = load ptr, ptr @opt_strategies, align 8, !tbaa !64
  call void @strvec_pushv(ptr noundef %29, ptr noundef %30)
  %31 = getelementptr inbounds nuw %struct.child_process, ptr %5, i32 0, i32 0
  %32 = load ptr, ptr @opt_strategy_opts, align 8, !tbaa !64
  call void @strvec_pushv(ptr noundef %31, ptr noundef %32)
  %33 = load ptr, ptr @opt_gpg_sign, align 8, !tbaa !11
  %34 = icmp ne ptr %33, null
  br i1 %34, label %35, label %39

35:                                               ; preds = %28
  %36 = getelementptr inbounds nuw %struct.child_process, ptr %5, i32 0, i32 0
  %37 = load ptr, ptr @opt_gpg_sign, align 8, !tbaa !11
  %38 = call ptr @strvec_push(ptr noundef %36, ptr noundef %37)
  br label %39

39:                                               ; preds = %35, %28
  %40 = load ptr, ptr @opt_signoff, align 8, !tbaa !11
  %41 = icmp ne ptr %40, null
  br i1 %41, label %42, label %46

42:                                               ; preds = %39
  %43 = getelementptr inbounds nuw %struct.child_process, ptr %5, i32 0, i32 0
  %44 = load ptr, ptr @opt_signoff, align 8, !tbaa !11
  %45 = call ptr @strvec_push(ptr noundef %43, ptr noundef %44)
  br label %46

46:                                               ; preds = %42, %39
  %47 = load i32, ptr @opt_autostash, align 4, !tbaa !4
  %48 = icmp eq i32 %47, 0
  br i1 %48, label %49, label %52

49:                                               ; preds = %46
  %50 = getelementptr inbounds nuw %struct.child_process, ptr %5, i32 0, i32 0
  %51 = call ptr @strvec_push(ptr noundef %50, ptr noundef @.str.176)
  br label %59

52:                                               ; preds = %46
  %53 = load i32, ptr @opt_autostash, align 4, !tbaa !4
  %54 = icmp eq i32 %53, 1
  br i1 %54, label %55, label %58

55:                                               ; preds = %52
  %56 = getelementptr inbounds nuw %struct.child_process, ptr %5, i32 0, i32 0
  %57 = call ptr @strvec_push(ptr noundef %56, ptr noundef @.str.177)
  br label %58

58:                                               ; preds = %55, %52
  br label %59

59:                                               ; preds = %58, %49
  %60 = load ptr, ptr @opt_verify_signatures, align 8, !tbaa !11
  %61 = icmp ne ptr %60, null
  br i1 %61, label %62, label %68

62:                                               ; preds = %59
  %63 = load ptr, ptr @opt_verify_signatures, align 8, !tbaa !11
  %64 = call i32 @strcmp(ptr noundef %63, ptr noundef @.str.182) #12
  %65 = icmp ne i32 %64, 0
  br i1 %65, label %68, label %66

66:                                               ; preds = %62
  %67 = call ptr @_(ptr noundef @.str.183)
  call void (ptr, ...) @warning(ptr noundef %67)
  br label %68

68:                                               ; preds = %66, %62, %59
  %69 = getelementptr inbounds nuw %struct.child_process, ptr %5, i32 0, i32 0
  %70 = call ptr @strvec_push(ptr noundef %69, ptr noundef @.str.184)
  %71 = getelementptr inbounds nuw %struct.child_process, ptr %5, i32 0, i32 0
  %72 = load ptr, ptr %3, align 8, !tbaa !59
  %73 = call ptr @oid_to_hex(ptr noundef %72)
  %74 = call ptr @strvec_push(ptr noundef %71, ptr noundef %73)
  %75 = getelementptr inbounds nuw %struct.child_process, ptr %5, i32 0, i32 0
  %76 = load ptr, ptr %4, align 8, !tbaa !59
  %77 = call ptr @oid_to_hex(ptr noundef %76)
  %78 = call ptr @strvec_push(ptr noundef %75, ptr noundef %77)
  %79 = getelementptr inbounds nuw %struct.child_process, ptr %5, i32 0, i32 11
  %80 = load i16, ptr %79, align 8
  %81 = and i16 %80, -9
  %82 = or i16 %81, 8
  store i16 %82, ptr %79, align 8
  %83 = call i32 @run_command(ptr noundef %5)
  call void @llvm.lifetime.end.p0(i64 120, ptr %5) #11
  ret i32 %83
}