; Function Attrs: nounwind uwtable
define internal fastcc i32 @run_rebase(ptr noundef nonnull %0, ptr noundef nonnull %1) unnamed_addr #0 {
  %3 = alloca %struct.child_process, align 8
  call void @llvm.lifetime.start.p0(i64 120, ptr nonnull %3) #17
  call void @llvm.memcpy.p0.p0.i64(ptr noundef nonnull align 8 dereferenceable(120) %3, ptr noundef nonnull align 8 dereferenceable(120) @__const.update_submodules.cp, i64 120, i1 false)
  %4 = call ptr @strvec_push(ptr noundef nonnull %3, ptr noundef nonnull @.str.28) #17
  %5 = load i32, ptr @opt_verbosity, align 4, !tbaa !39
  %6 = icmp sgt i32 %5, 0
  br i1 %6, label %.lr.ph.i, label %._crit_edge.i

.lr.ph.i:                                         ; preds = %2, %.lr.ph.i
  %.05.i = phi i32 [ %8, %.lr.ph.i ], [ %5, %2 ]
  %7 = call ptr @strvec_push(ptr noundef nonnull %3, ptr noundef nonnull @.str.150) #17
  %8 = add nsw i32 %.05.i, -1
  %9 = icmp samesign ugt i32 %.05.i, 1
  br i1 %9, label %.lr.ph.i, label %._crit_edge.loopexit.i, !llvm.loop !61

._crit_edge.loopexit.i:                           ; preds = %.lr.ph.i
  %.pre.i = load i32, ptr @opt_verbosity, align 4, !tbaa !39
  br label %._crit_edge.i

._crit_edge.i:                                    ; preds = %._crit_edge.loopexit.i, %2
  %10 = phi i32 [ %.pre.i, %._crit_edge.loopexit.i ], [ %5, %2 ]
  %11 = icmp slt i32 %10, 0
  br i1 %11, label %.lr.ph8.i, label %argv_push_verbosity.exit

.lr.ph8.i:                                        ; preds = %._crit_edge.i, %.lr.ph8.i
  %.16.i = phi i32 [ %13, %.lr.ph8.i ], [ %10, %._crit_edge.i ]
  %12 = call ptr @strvec_push(ptr noundef nonnull %3, ptr noundef nonnull @.str.151) #17
  %13 = add i32 %.16.i, 1
  %exitcond.not.i = icmp eq i32 %13, 0
  br i1 %exitcond.not.i, label %argv_push_verbosity.exit, label %.lr.ph8.i, !llvm.loop !62

argv_push_verbosity.exit:                         ; preds = %.lr.ph8.i, %._crit_edge.i
  %14 = load i32, ptr @opt_rebase, align 4, !tbaa !39
  switch i32 %14, label %17 [
    i32 2, label %.sink.split
    i32 3, label %15
  ]

15:                                               ; preds = %argv_push_verbosity.exit
  br label %.sink.split

.sink.split:                                      ; preds = %argv_push_verbosity.exit, %15
  %.str.181.sink = phi ptr [ @.str.181, %15 ], [ @.str.180, %argv_push_verbosity.exit ]
  %16 = call ptr @strvec_push(ptr noundef nonnull %3, ptr noundef nonnull %.str.181.sink) #17
  br label %17

17:                                               ; preds = %.sink.split, %argv_push_verbosity.exit
  %18 = load ptr, ptr @opt_diffstat, align 8, !tbaa !14
  %.not = icmp eq ptr %18, null
  br i1 %.not, label %21, label %19

19:                                               ; preds = %17
  %20 = call ptr @strvec_push(ptr noundef nonnull %3, ptr noundef nonnull %18) #17
  br label %21

21:                                               ; preds = %19, %17
  %22 = load ptr, ptr @opt_strategies, align 8, !tbaa !64
  call void @strvec_pushv(ptr noundef nonnull %3, ptr noundef %22) #17
  %23 = load ptr, ptr @opt_strategy_opts, align 8, !tbaa !64
  call void @strvec_pushv(ptr noundef nonnull %3, ptr noundef %23) #17
  %24 = load ptr, ptr @opt_gpg_sign, align 8, !tbaa !14
  %.not7 = icmp eq ptr %24, null
  br i1 %.not7, label %27, label %25

25:                                               ; preds = %21
  %26 = call ptr @strvec_push(ptr noundef nonnull %3, ptr noundef nonnull %24) #17
  br label %27

27:                                               ; preds = %25, %21
  %28 = load ptr, ptr @opt_signoff, align 8, !tbaa !14
  %.not8 = icmp eq ptr %28, null
  br i1 %.not8, label %31, label %29

29:                                               ; preds = %27
  %30 = call ptr @strvec_push(ptr noundef nonnull %3, ptr noundef nonnull %28) #17
  br label %31

31:                                               ; preds = %29, %27
  %32 = load i32, ptr @opt_autostash, align 4, !tbaa !39
  switch i32 %32, label %35 [
    i32 0, label %.sink.split11
    i32 1, label %33
  ]

33:                                               ; preds = %31
  br label %.sink.split11

.sink.split11:                                    ; preds = %31, %33
  %.str.177.sink = phi ptr [ @.str.177, %33 ], [ @.str.176, %31 ]
  %34 = call ptr @strvec_push(ptr noundef nonnull %3, ptr noundef nonnull %.str.177.sink) #17
  br label %35

35:                                               ; preds = %.sink.split11, %31
  %36 = load ptr, ptr @opt_verify_signatures, align 8, !tbaa !14
  %.not9 = icmp eq ptr %36, null
  br i1 %.not9, label %43, label %37

37:                                               ; preds = %35
  %38 = call i32 @strcmp(ptr noundef nonnull dereferenceable(1) %36, ptr noundef nonnull dereferenceable(20) @.str.182) #18
  %.not10 = icmp eq i32 %38, 0
  br i1 %.not10, label %39, label %43

39:                                               ; preds = %37
  %40 = load i32, ptr @git_gettext_enabled, align 4, !tbaa !39
  %.not4.i = icmp eq i32 %40, 0
  br i1 %.not4.i, label %_.exit, label %41

41:                                               ; preds = %39
  %42 = call ptr @dcgettext(ptr noundef null, ptr noundef nonnull @.str.183, i32 noundef 5) #17
  br label %_.exit

_.exit:                                           ; preds = %39, %41
  %.0.i = phi ptr [ %42, %41 ], [ @.str.183, %39 ]
  call void (ptr, ...) @warning(ptr noundef %.0.i) #17
  br label %43

43:                                               ; preds = %_.exit, %37, %35
  %44 = call ptr @strvec_push(ptr noundef nonnull %3, ptr noundef nonnull @.str.184) #17
  %45 = call ptr @oid_to_hex(ptr noundef nonnull %0) #17
  %46 = call ptr @strvec_push(ptr noundef nonnull %3, ptr noundef %45) #17
  %47 = call ptr @oid_to_hex(ptr noundef nonnull %1) #17
  %48 = call ptr @strvec_push(ptr noundef nonnull %3, ptr noundef %47) #17
  %49 = getelementptr inbounds nuw i8, ptr %3, i64 104
  %50 = load i16, ptr %49, align 8
  %51 = or i16 %50, 8
  store i16 %51, ptr %49, align 8
  %52 = call i32 @run_command(ptr noundef nonnull %3) #17
  call void @llvm.lifetime.end.p0(i64 120, ptr nonnull %3) #17
  ret i32 %52
}